; Function Attrs: mustprogress nounwind uwtable
define internal fastcc void @_ZNSt8_Rb_treeINSt7__cxx1112basic_stringIcSt11char_traitsIcESaIcEEESt4pairIKS5_ZN6hermes2vm6GCBase20sizeDiagnosticCensusEmE14DiagnosticStatESt10_Select1stISC_ESt4lessIS5_ESaISC_EE8_M_eraseEPSt13_Rb_tree_nodeISC_E(ptr noundef %__x) unnamed_addr #0 align 2 {
entry:
  %cmp.not5 = icmp eq ptr %__x, null
  br i1 %cmp.not5, label %while.end, label %while.body

while.body:                                       ; preds = %entry, %while.body
  %__x.addr.06 = phi ptr [ %__x.addr.0.val, %while.body ], [ %__x, %entry ]
  %0 = getelementptr i8, ptr %__x.addr.06, i64 24
  %__x.addr.0.val4 = load ptr, ptr %0, align 8
  tail call fastcc void @_ZNSt8_Rb_treeINSt7__cxx1112basic_stringIcSt11char_traitsIcESaIcEEESt4pairIKS5_ZN6hermes2vm6GCBase20sizeDiagnosticCensusEmE14DiagnosticStatESt10_Select1stISC_ESt4lessIS5_ESaISC_EE8_M_eraseEPSt13_Rb_tree_nodeISC_E(ptr noundef %__x.addr.0.val4)
  %1 = getelementptr i8, ptr %__x.addr.06, i64 16
  %__x.addr.0.val = load ptr, ptr %1, align 8
  %_M_storage.i = getelementptr inbounds i8, ptr %__x.addr.06, i64 32
  %2 = getelementptr i8, ptr %__x.addr.06, i64 96
  %this.val.i.i = load ptr, ptr %2, align 8
  tail call fastcc void @_ZNSt8_Rb_treeINSt7__cxx1112basic_stringIcSt11char_traitsIcESaIcEEESt4pairIKS5_ZN6hermes2vm6GCBase20sizeDiagnosticCensusEmE14DiagnosticStatESt10_Select1stISC_ESt4lessIS5_ESaISC_EE8_M_eraseEPSt13_Rb_tree_nodeISC_E(ptr noundef %this.val.i.i)
  tail call void @_ZNSt7__cxx1112basic_stringIcSt11char_traitsIcESaIcEED1Ev(ptr noundef nonnull align 8 dereferenceable(32) %_M_storage.i) #27
  tail call void @_ZdlPv(ptr noundef nonnull %__x.addr.06) #30
  %cmp.not = icmp eq ptr %__x.addr.0.val, null
  br i1 %cmp.not, label %while.end, label %while.body, !llvm.loop !57

while.end:                                        ; preds = %while.body, %entry
  ret void
}